; Function Attrs: nofree norecurse nosync nounwind uwtable
define range(i64 0, 4294967296) i64 @zfp_decode_partial_block_strided_int32_4(ptr noundef readonly captures(none) %0, ptr noundef writeonly captures(none) %1, i64 noundef %2, i64 noundef %3, i64 noundef %4, i64 noundef %5, i64 noundef %6, i64 noundef %7, i64 noundef %8, i64 noundef %9) local_unnamed_addr #0 {
  %11 = alloca [256 x i32], align 256
  call void @llvm.lifetime.start.p0(i64 1024, ptr nonnull %11) #6
  %12 = call i64 @zfp_decode_block_int32_4(ptr noundef %0, ptr noundef nonnull %11)
  %.not.i = icmp eq i64 %5, 0
  br i1 %.not.i, label %scatter_partial_int32_4.exit, label %.preheader46.lr.ph.i

.preheader46.lr.ph.i:                             ; preds = %10
  %.not93.i = icmp eq i64 %4, 0
  %.not95.i = icmp eq i64 %2, 0
  %13 = mul nsw i64 %6, %2
  %14 = sub nsw i64 %7, %13
  %15 = sub i64 4, %2
  %16 = mul nsw i64 %7, %3
  %17 = sub nsw i64 %8, %16
  %18 = shl i64 %3, 2
  %19 = sub i64 16, %18
  %20 = mul nsw i64 %8, %4
  %21 = sub nsw i64 %9, %20
  %22 = shl i64 %4, 4
  %23 = sub i64 64, %22
  %.not94.i = icmp eq i64 %3, 0
  %or.cond.i = or i1 %.not94.i, %.not93.i
  %brmerge.i = or i1 %.not95.i, %or.cond.i
  br i1 %brmerge.i, label %scatter_partial_int32_4.exit, label %.preheader46.us.us.us.i

.preheader46.us.us.us.i:                          ; preds = %.preheader46.lr.ph.i, %._crit_edge.split.us.split.us.us.us.us.i
  %.076.us.us.us.i = phi i64 [ %35, %._crit_edge.split.us.split.us.us.us.us.i ], [ 0, %.preheader46.lr.ph.i ]
  %.03775.us.us.us.i = phi ptr [ %37, %._crit_edge.split.us.split.us.us.us.us.i ], [ %11, %.preheader46.lr.ph.i ]
  %.03874.us.us.us.i = phi ptr [ %36, %._crit_edge.split.us.split.us.us.us.us.i ], [ %1, %.preheader46.lr.ph.i ]
  br label %.preheader45.us.us.us.us.us.i

.preheader45.us.us.us.us.us.i:                    ; preds = %._crit_edge54.split.us.us.us.us.us.us.i, %.preheader46.us.us.us.i
  %.03460.us.us.us.us.us.i = phi i64 [ 0, %.preheader46.us.us.us.i ], [ %32, %._crit_edge54.split.us.us.us.us.us.us.i ]
  %.159.us.us.us.us.us.i = phi ptr [ %.03775.us.us.us.i, %.preheader46.us.us.us.i ], [ %34, %._crit_edge54.split.us.us.us.us.us.us.i ]
  %.13958.us.us.us.us.us.i = phi ptr [ %.03874.us.us.us.i, %.preheader46.us.us.us.i ], [ %33, %._crit_edge54.split.us.us.us.us.us.us.i ]
  br label %.preheader.us.us.us.us.us.us.i

.preheader.us.us.us.us.us.us.i:                   ; preds = %._crit_edge.us.us.us.us.us.us.i, %.preheader45.us.us.us.us.us.i
  %.03553.us.us.us.us.us.us.i = phi i64 [ 0, %.preheader45.us.us.us.us.us.i ], [ %29, %._crit_edge.us.us.us.us.us.us.i ]
  %.252.us.us.us.us.us.us.i = phi ptr [ %.159.us.us.us.us.us.i, %.preheader45.us.us.us.us.us.i ], [ %31, %._crit_edge.us.us.us.us.us.us.i ]
  %.24051.us.us.us.us.us.us.i = phi ptr [ %.13958.us.us.us.us.us.i, %.preheader45.us.us.us.us.us.i ], [ %30, %._crit_edge.us.us.us.us.us.us.i ]
  br label %24

24:                                               ; preds = %24, %.preheader.us.us.us.us.us.us.i
  %.03649.us.us.us.us.us.us.i = phi i64 [ 0, %.preheader.us.us.us.us.us.us.i ], [ %26, %24 ]
  %.348.us.us.us.us.us.us.i = phi ptr [ %.252.us.us.us.us.us.us.i, %.preheader.us.us.us.us.us.us.i ], [ %28, %24 ]
  %.34147.us.us.us.us.us.us.i = phi ptr [ %.24051.us.us.us.us.us.us.i, %.preheader.us.us.us.us.us.us.i ], [ %27, %24 ]
  %25 = load i32, ptr %.348.us.us.us.us.us.us.i, align 4, !tbaa !23
  store i32 %25, ptr %.34147.us.us.us.us.us.us.i, align 4, !tbaa !23
  %26 = add nuw i64 %.03649.us.us.us.us.us.us.i, 1
  %27 = getelementptr inbounds i32, ptr %.34147.us.us.us.us.us.us.i, i64 %6
  %28 = getelementptr inbounds nuw i8, ptr %.348.us.us.us.us.us.us.i, i64 4
  %exitcond.not.i = icmp eq i64 %26, %2
  br i1 %exitcond.not.i, label %._crit_edge.us.us.us.us.us.us.i, label %24

._crit_edge.us.us.us.us.us.us.i:                  ; preds = %24
  %29 = add nuw i64 %.03553.us.us.us.us.us.us.i, 1
  %30 = getelementptr inbounds i32, ptr %27, i64 %14
  %31 = getelementptr inbounds nuw i32, ptr %28, i64 %15
  %exitcond110.not.i = icmp eq i64 %29, %3
  br i1 %exitcond110.not.i, label %._crit_edge54.split.us.us.us.us.us.us.i, label %.preheader.us.us.us.us.us.us.i

._crit_edge54.split.us.us.us.us.us.us.i:          ; preds = %._crit_edge.us.us.us.us.us.us.i
  %32 = add nuw i64 %.03460.us.us.us.us.us.i, 1
  %33 = getelementptr inbounds i32, ptr %30, i64 %17
  %34 = getelementptr inbounds nuw i32, ptr %31, i64 %19
  %exitcond111.not.i = icmp eq i64 %32, %4
  br i1 %exitcond111.not.i, label %._crit_edge.split.us.split.us.us.us.us.i, label %.preheader45.us.us.us.us.us.i

._crit_edge.split.us.split.us.us.us.us.i:         ; preds = %._crit_edge54.split.us.us.us.us.us.us.i
  %35 = add nuw i64 %.076.us.us.us.i, 1
  %36 = getelementptr inbounds i32, ptr %33, i64 %21
  %37 = getelementptr inbounds nuw i32, ptr %34, i64 %23
  %exitcond112.not.i = icmp eq i64 %35, %5
  br i1 %exitcond112.not.i, label %scatter_partial_int32_4.exit, label %.preheader46.us.us.us.i

scatter_partial_int32_4.exit:                     ; preds = %._crit_edge.split.us.split.us.us.us.us.i, %10, %.preheader46.lr.ph.i
  call void @llvm.lifetime.end.p0(i64 1024, ptr nonnull %11) #6
  ret i64 %12
}